target datalayout = "e-m:e-p270:32:32-p271:32:32-p272:64:64-i64:64-i128:128-f80:128-n8:16:32:64-S128"
target triple = "x86_64-pc-linux-gnu"

%struct._cmsTagPluginChunkType = type { ptr }
%struct._cmsTagLinkedList_st = type { i32, %struct.cmsTagDescriptor, ptr }
%struct.cmsTagDescriptor = type { i32, i32, [20 x i32], ptr }

; Function Attrs: nounwind uwtable
define hidden ptr @_cmsGetTagDescriptor(ptr noundef %0, i32 noundef %1) #0 {
  %3 = alloca ptr, align 8
  %4 = alloca ptr, align 8
  %5 = alloca i32, align 4
  %6 = alloca ptr, align 8
  %7 = alloca ptr, align 8
  store ptr %0, ptr %4, align 8
  store i32 %1, ptr %5, align 4
  %8 = load ptr, ptr %4, align 8
  %9 = call ptr @_cmsContextGetClientChunk(ptr noundef %8, i32 noundef 9)
  store ptr %9, ptr %7, align 8
  %10 = load ptr, ptr %7, align 8
  %11 = getelementptr inbounds %struct._cmsTagPluginChunkType, ptr %10, i32 0, i32 0
  %12 = load ptr, ptr %11, align 8
  store ptr %12, ptr %6, align 8
  br label %13

13:                                               ; preds = %26, %2
  %14 = load ptr, ptr %6, align 8
  %15 = icmp ne ptr %14, null
  br i1 %15, label %16, label %30

16:                                               ; preds = %13
  %17 = load i32, ptr %5, align 4
  %18 = load ptr, ptr %6, align 8
  %19 = getelementptr inbounds %struct._cmsTagLinkedList_st, ptr %18, i32 0, i32 0
  %20 = load i32, ptr %19, align 8
  %21 = icmp eq i32 %17, %20
  br i1 %21, label %22, label %25

22:                                               ; preds = %16
  %23 = load ptr, ptr %6, align 8
  %24 = getelementptr inbounds %struct._cmsTagLinkedList_st, ptr %23, i32 0, i32 1
  store ptr %24, ptr %3, align 8
  br label %49

25:                                               ; preds = %16
  br label %26

26:                                               ; preds = %25
  %27 = load ptr, ptr %6, align 8
  %28 = getelementptr inbounds %struct._cmsTagLinkedList_st, ptr %27, i32 0, i32 2
  %29 = load ptr, ptr %28, align 8
  store ptr %29, ptr %6, align 8
  br label %13, !llvm.loop !13

30:                                               ; preds = %13
  store ptr @SupportedTags, ptr %6, align 8
  br label %31

31:                                               ; preds = %44, %30
  %32 = load ptr, ptr %6, align 8
  %33 = icmp ne ptr %32, null
  br i1 %33, label %34, label %48

34:                                               ; preds = %31
  %35 = load i32, ptr %5, align 4
  %36 = load ptr, ptr %6, align 8
  %37 = getelementptr inbounds %struct._cmsTagLinkedList_st, ptr %36, i32 0, i32 0
  %38 = load i32, ptr %37, align 8
  %39 = icmp eq i32 %35, %38
  br i1 %39, label %40, label %43

40:                                               ; preds = %34
  %41 = load ptr, ptr %6, align 8
  %42 = getelementptr inbounds %struct._cmsTagLinkedList_st, ptr %41, i32 0, i32 1
  store ptr %42, ptr %3, align 8
  br label %49

43:                                               ; preds = %34
  br label %44

44:                                               ; preds = %43
  %45 = load ptr, ptr %6, align 8
  %46 = getelementptr inbounds %struct._cmsTagLinkedList_st, ptr %45, i32 0, i32 2
  %47 = load ptr, ptr %46, align 8
  store ptr %47, ptr %6, align 8
  br label %31, !llvm.loop !14

48:                                               ; preds = %31
  store ptr null, ptr %3, align 8
  br label %49

49:                                               ; preds = %48, %40, %22
  %50 = load ptr, ptr %3, align 8
  ret ptr %50
}