; Function Attrs: nounwind uwtable
define hidden ptr @_cmsGetTagDescriptor(ptr noundef %0, i32 noundef %1) local_unnamed_addr #0 {
  %3 = tail call ptr @_cmsContextGetClientChunk(ptr noundef %0, i32 noundef 9) #13
  %.01216 = load ptr, ptr %3, align 8
  %.not17 = icmp eq ptr %.01216, null
  br i1 %.not17, label %.preheader.preheader, label %.lr.ph

.lr.ph:                                           ; preds = %2, %8
  %.01218 = phi ptr [ %.012, %8 ], [ %.01216, %2 ]
  %4 = load i32, ptr %.01218, align 8
  %5 = icmp eq i32 %4, %1
  br i1 %5, label %6, label %8

6:                                                ; preds = %.lr.ph
  %7 = getelementptr inbounds i8, ptr %.01218, i64 8
  br label %.loopexit

8:                                                ; preds = %.lr.ph
  %9 = getelementptr inbounds i8, ptr %.01218, i64 104
  %.012 = load ptr, ptr %9, align 8
  %.not = icmp eq ptr %.012, null
  br i1 %.not, label %.preheader.preheader, label %.lr.ph, !llvm.loop !13

.preheader.preheader:                             ; preds = %8, %2
  br label %.preheader

.preheader:                                       ; preds = %.preheader.preheader, %14
  %.119 = phi ptr [ %16, %14 ], [ @SupportedTags, %.preheader.preheader ]
  %10 = load i32, ptr %.119, align 8
  %11 = icmp eq i32 %10, %1
  br i1 %11, label %12, label %14

12:                                               ; preds = %.preheader
  %13 = getelementptr inbounds i8, ptr %.119, i64 8
  br label %.loopexit

14:                                               ; preds = %.preheader
  %15 = getelementptr inbounds i8, ptr %.119, i64 104
  %16 = load ptr, ptr %15, align 8
  %.not13 = icmp eq ptr %16, null
  br i1 %.not13, label %.loopexit, label %.preheader, !llvm.loop !14

.loopexit:                                        ; preds = %14, %12, %6
  %.0 = phi ptr [ %7, %6 ], [ %13, %12 ], [ null, %14 ]
  ret ptr %.0
}